; Function Attrs: mustprogress uwtable
define void @_Z31grpc_resolver_dns_ares_shutdownv() local_unnamed_addr #5 personality ptr @__gxx_personality_v0 {
  %1 = load atomic i64, ptr @_ZN9grpc_core10ConfigVars12config_vars_E acquire, align 8
  %.0.i.i.i = inttoptr i64 %1 to ptr
  %.not.i = icmp eq i64 %1, 0
  br i1 %.not.i, label %2, label %_ZN9grpc_core10ConfigVars3GetEv.exit

2:                                                ; preds = %0
  %3 = tail call noundef nonnull align 8 dereferenceable(280) ptr @_ZN9grpc_core10ConfigVars4LoadEv()
  br label %_ZN9grpc_core10ConfigVars3GetEv.exit

_ZN9grpc_core10ConfigVars3GetEv.exit:             ; preds = %0, %2
  %.0.i = phi ptr [ %3, %2 ], [ %.0.i.i.i, %0 ]
  %4 = getelementptr inbounds nuw i8, ptr %.0.i, i64 16
  %5 = load i64, ptr %4, align 8, !tbaa !15
  %6 = icmp eq i64 %5, 0
  br i1 %6, label %_ZN9grpc_core24ShouldUseAresDnsResolverESt17basic_string_viewIcSt11char_traitsIcEE.exit.thread, label %_ZN9grpc_core24ShouldUseAresDnsResolverESt17basic_string_viewIcSt11char_traitsIcEE.exit

_ZN9grpc_core24ShouldUseAresDnsResolverESt17basic_string_viewIcSt11char_traitsIcEE.exit: ; preds = %_ZN9grpc_core10ConfigVars3GetEv.exit
  %7 = getelementptr inbounds nuw i8, ptr %.0.i, i64 8
  %8 = load ptr, ptr %7, align 8, !tbaa !20
  %9 = tail call noundef zeroext i1 @_ZN4absl12lts_2024072216EqualsIgnoreCaseESt17basic_string_viewIcSt11char_traitsIcEES4_(i64 %5, ptr %8, i64 4, ptr nonnull @.str) #34
  br i1 %9, label %_ZN9grpc_core24ShouldUseAresDnsResolverESt17basic_string_viewIcSt11char_traitsIcEE.exit.thread, label %10

_ZN9grpc_core24ShouldUseAresDnsResolverESt17basic_string_viewIcSt11char_traitsIcEE.exit.thread: ; preds = %_ZN9grpc_core10ConfigVars3GetEv.exit, %_ZN9grpc_core24ShouldUseAresDnsResolverESt17basic_string_viewIcSt11char_traitsIcEE.exit
  tail call void @address_sorting_shutdown()
  tail call void @_Z17grpc_ares_cleanupv()
  br label %10

10:                                               ; preds = %_ZN9grpc_core24ShouldUseAresDnsResolverESt17basic_string_viewIcSt11char_traitsIcEE.exit.thread, %_ZN9grpc_core24ShouldUseAresDnsResolverESt17basic_string_viewIcSt11char_traitsIcEE.exit
  ret void
}